target datalayout = "e-m:e-p270:32:32-p271:32:32-p272:64:64-i64:64-i128:128-f80:128-n8:16:32:64-S128"
target triple = "x86_64-pc-linux-gnu"

@.str.45 = private unnamed_addr constant [8 x i8] c"UNKNOWN\00", align 1
@.str.62 = private unnamed_addr constant [11 x i8] c"CHAIN_INFO\00", align 1
@.str.63 = private unnamed_addr constant [18 x i8] c"EXCEPTION_HANDLER\00", align 1
@.str.64 = private unnamed_addr constant [18 x i8] c"TERMINATE_HANDLER\00", align 1

; Function Attrs: mustprogress nounwind uwtable
define noundef ptr @_ZN4LIEF2PE9to_stringENS0_18RuntimeFunctionX6412UNWIND_FLAGSE(i8 noundef zeroext %0) #1 {
  %2 = alloca ptr, align 8
  %3 = alloca i8, align 1
  store i8 %0, ptr %3, align 1, !tbaa !91
  %4 = load i8, ptr %3, align 1, !tbaa !91
  switch i8 %4, label %5 [
    i8 4, label %6
    i8 1, label %7
    i8 2, label %8
  ]

5:                                                ; preds = %1
  store ptr @.str.45, ptr %2, align 8
  br label %9

6:                                                ; preds = %1
  store ptr @.str.62, ptr %2, align 8
  br label %9

7:                                                ; preds = %1
  store ptr @.str.63, ptr %2, align 8
  br label %9

8:                                                ; preds = %1
  store ptr @.str.64, ptr %2, align 8
  br label %9

9:                                                ; preds = %8, %7, %6, %5
  %10 = load ptr, ptr %2, align 8
  ret ptr %10
}