; Function Attrs: mustprogress nofree norecurse nosync nounwind willreturn memory(none) uwtable
define noundef nonnull ptr @_ZN4LIEF2PE9to_stringENS0_18RuntimeFunctionX6412UNWIND_FLAGSE(i8 noundef zeroext %0) local_unnamed_addr #4 {
  %switch.tableidx = add i8 %0, -1
  %2 = icmp ult i8 %switch.tableidx, 4
  br i1 %2, label %switch.lookup, label %4

switch.lookup:                                    ; preds = %1
  %3 = zext nneg i8 %switch.tableidx to i64
  %switch.gep = getelementptr inbounds nuw [4 x ptr], ptr @switch.table._ZN4LIEF2PE9to_stringENS0_18RuntimeFunctionX6412UNWIND_FLAGSE, i64 0, i64 %3
  %switch.load = load ptr, ptr %switch.gep, align 8
  br label %4

4:                                                ; preds = %switch.lookup, %1
  %.0 = phi ptr [ @.str.45, %1 ], [ %switch.load, %switch.lookup ]
  ret ptr %.0
}